target datalayout = "e-m:e-p270:32:32-p271:32:32-p272:64:64-i64:64-i128:128-f80:128-n8:16:32:64-S128"
target triple = "x86_64-pc-linux-gnu"

@tmp_colors_set = internal global i8 0, align 1

; Function Attrs: null_pointer_is_valid sspstrong uwtable
define zeroext i1 @color_filters_reset_tmp(ptr noundef %0) #0 {
  %2 = alloca i1, align 1
  %3 = alloca ptr, align 8
  %4 = alloca i8, align 1
  %5 = alloca i32, align 4
  store ptr %0, ptr %3, align 8
  call void @llvm.lifetime.start.p0(i64 1, ptr %4) #13
  store i8 1, ptr %4, align 1
  br label %6

6:                                                ; preds = %16, %1
  %7 = load i8, ptr %4, align 1
  %8 = zext i8 %7 to i32
  %9 = icmp sle i32 %8, 10
  br i1 %9, label %10, label %19

10:                                               ; preds = %6
  %11 = load i8, ptr %4, align 1
  %12 = load ptr, ptr %3, align 8
  %13 = call zeroext i1 @color_filters_set_tmp(i8 noundef zeroext %11, ptr noundef null, i1 noundef zeroext true, ptr noundef %12)
  br i1 %13, label %15, label %14

14:                                               ; preds = %10
  store i1 false, ptr %2, align 1
  store i32 1, ptr %5, align 4
  br label %20

15:                                               ; preds = %10
  br label %16

16:                                               ; preds = %15
  %17 = load i8, ptr %4, align 1
  %18 = add i8 %17, 1
  store i8 %18, ptr %4, align 1
  br label %6, !llvm.loop !10

19:                                               ; preds = %6
  store i8 0, ptr @tmp_colors_set, align 1
  store i1 true, ptr %2, align 1
  store i32 1, ptr %5, align 4
  br label %20

20:                                               ; preds = %19, %14
  call void @llvm.lifetime.end.p0(i64 1, ptr %4) #13
  %21 = load i1, ptr %2, align 1
  ret i1 %21
}