; Function Attrs: null_pointer_is_valid sspstrong uwtable
define noundef zeroext i1 @color_filters_reset_tmp(ptr noundef writeonly captures(none) %0) local_unnamed_addr #0 {
  br label %4

2:                                                ; preds = %4
  %3 = add nuw nsw i8 %.06, 1
  %exitcond = icmp eq i8 %3, 11
  br i1 %exitcond, label %6, label %4, !llvm.loop !10

4:                                                ; preds = %1, %2
  %.06 = phi i8 [ 1, %1 ], [ %3, %2 ]
  %5 = tail call zeroext i1 @color_filters_set_tmp(i8 noundef zeroext %.06, ptr noundef null, i1 noundef zeroext true, ptr noundef %0)
  br i1 %5, label %2, label %.loopexit

6:                                                ; preds = %2
  store i1 false, ptr @tmp_colors_set, align 1
  br label %.loopexit

.loopexit:                                        ; preds = %4, %6
  ret i1 %5
}